target datalayout = "e-m:e-p270:32:32-p271:32:32-p272:64:64-i64:64-i128:128-f80:128-n8:16:32:64-S128"
target triple = "x86_64-pc-linux-gnu"

@Curl_cmalloc = external global ptr, align 8
@hextable = internal constant [55 x i8] c"\00\01\02\03\04\05\06\07\08\09\00\00\00\00\00\00\00\0A\0B\0C\0D\0E\0F\00\00\00\00\00\00\00\00\00\00\00\00\00\00\00\00\00\00\00\00\00\00\00\00\00\00\0A\0B\0C\0D\0E\0F", align 16
@Curl_cfree = external global ptr, align 8

; Function Attrs: nounwind uwtable
define hidden i32 @Curl_urldecode(ptr noundef %0, i64 noundef %1, ptr noundef %2, ptr noundef %3, i32 noundef %4) #0 {
  %6 = alloca i32, align 4
  %7 = alloca ptr, align 8
  %8 = alloca i64, align 8
  %9 = alloca ptr, align 8
  %10 = alloca ptr, align 8
  %11 = alloca i32, align 4
  %12 = alloca i64, align 8
  %13 = alloca ptr, align 8
  %14 = alloca i32, align 4
  %15 = alloca i8, align 1
  store ptr %0, ptr %7, align 8, !tbaa !3
  store i64 %1, ptr %8, align 8, !tbaa !11
  store ptr %2, ptr %9, align 8, !tbaa !18
  store ptr %3, ptr %10, align 8, !tbaa !20
  store i32 %4, ptr %11, align 4, !tbaa !8
  call void @llvm.lifetime.start.p0(i64 8, ptr %12) #5
  call void @llvm.lifetime.start.p0(i64 8, ptr %13) #5
  br label %16

16:                                               ; preds = %5
  br label %17

17:                                               ; preds = %16
  br label %18

18:                                               ; preds = %17
  br label %19

19:                                               ; preds = %18
  br label %20

20:                                               ; preds = %19
  br label %21

21:                                               ; preds = %20
  %22 = load i64, ptr %8, align 8, !tbaa !11
  %23 = icmp ne i64 %22, 0
  br i1 %23, label %24, label %26

24:                                               ; preds = %21
  %25 = load i64, ptr %8, align 8, !tbaa !11
  br label %29

26:                                               ; preds = %21
  %27 = load ptr, ptr %7, align 8, !tbaa !3
  %28 = call i64 @strlen(ptr noundef %27) #6
  br label %29

29:                                               ; preds = %26, %24
  %30 = phi i64 [ %25, %24 ], [ %28, %26 ]
  store i64 %30, ptr %12, align 8, !tbaa !11
  %31 = load ptr, ptr @Curl_cmalloc, align 8, !tbaa !10
  %32 = load i64, ptr %12, align 8, !tbaa !11
  %33 = add i64 %32, 1
  %34 = call ptr %31(i64 noundef %33)
  store ptr %34, ptr %13, align 8, !tbaa !3
  %35 = load ptr, ptr %13, align 8, !tbaa !3
  %36 = icmp ne ptr %35, null
  br i1 %36, label %38, label %37

37:                                               ; preds = %29
  store i32 27, ptr %6, align 4
  store i32 1, ptr %14, align 4
  br label %200

38:                                               ; preds = %29
  %39 = load ptr, ptr %13, align 8, !tbaa !3
  %40 = load ptr, ptr %9, align 8, !tbaa !18
  store ptr %39, ptr %40, align 8, !tbaa !3
  br label %41

41:                                               ; preds = %186, %38
  %42 = load i64, ptr %12, align 8, !tbaa !11
  %43 = icmp ne i64 %42, 0
  br i1 %43, label %44, label %187

44:                                               ; preds = %41
  call void @llvm.lifetime.start.p0(i64 1, ptr %15) #5
  %45 = load ptr, ptr %7, align 8, !tbaa !3
  %46 = load i8, ptr %45, align 1, !tbaa !13
  store i8 %46, ptr %15, align 1, !tbaa !13
  %47 = load i8, ptr %15, align 1, !tbaa !13
  %48 = zext i8 %47 to i32
  %49 = icmp eq i32 37, %48
  br i1 %49, label %50, label %153

50:                                               ; preds = %44
  %51 = load i64, ptr %12, align 8, !tbaa !11
  %52 = icmp ugt i64 %51, 2
  br i1 %52, label %53, label %153

53:                                               ; preds = %50
  %54 = load ptr, ptr %7, align 8, !tbaa !3
  %55 = getelementptr inbounds i8, ptr %54, i64 1
  %56 = load i8, ptr %55, align 1, !tbaa !13
  %57 = sext i8 %56 to i32
  %58 = icmp sge i32 %57, 48
  br i1 %58, label %59, label %65

59:                                               ; preds = %53
  %60 = load ptr, ptr %7, align 8, !tbaa !3
  %61 = getelementptr inbounds i8, ptr %60, i64 1
  %62 = load i8, ptr %61, align 1, !tbaa !13
  %63 = sext i8 %62 to i32
  %64 = icmp sle i32 %63, 57
  br i1 %64, label %89, label %65

65:                                               ; preds = %59, %53
  %66 = load ptr, ptr %7, align 8, !tbaa !3
  %67 = getelementptr inbounds i8, ptr %66, i64 1
  %68 = load i8, ptr %67, align 1, !tbaa !13
  %69 = sext i8 %68 to i32
  %70 = icmp sge i32 %69, 97
  br i1 %70, label %71, label %77

71:                                               ; preds = %65
  %72 = load ptr, ptr %7, align 8, !tbaa !3
  %73 = getelementptr inbounds i8, ptr %72, i64 1
  %74 = load i8, ptr %73, align 1, !tbaa !13
  %75 = sext i8 %74 to i32
  %76 = icmp sle i32 %75, 102
  br i1 %76, label %89, label %77

77:                                               ; preds = %71, %65
  %78 = load ptr, ptr %7, align 8, !tbaa !3
  %79 = getelementptr inbounds i8, ptr %78, i64 1
  %80 = load i8, ptr %79, align 1, !tbaa !13
  %81 = sext i8 %80 to i32
  %82 = icmp sge i32 %81, 65
  br i1 %82, label %83, label %153

83:                                               ; preds = %77
  %84 = load ptr, ptr %7, align 8, !tbaa !3
  %85 = getelementptr inbounds i8, ptr %84, i64 1
  %86 = load i8, ptr %85, align 1, !tbaa !13
  %87 = sext i8 %86 to i32
  %88 = icmp sle i32 %87, 70
  br i1 %88, label %89, label %153

89:                                               ; preds = %83, %71, %59
  %90 = load ptr, ptr %7, align 8, !tbaa !3
  %91 = getelementptr inbounds i8, ptr %90, i64 2
  %92 = load i8, ptr %91, align 1, !tbaa !13
  %93 = sext i8 %92 to i32
  %94 = icmp sge i32 %93, 48
  br i1 %94, label %95, label %101

95:                                               ; preds = %89
  %96 = load ptr, ptr %7, align 8, !tbaa !3
  %97 = getelementptr inbounds i8, ptr %96, i64 2
  %98 = load i8, ptr %97, align 1, !tbaa !13
  %99 = sext i8 %98 to i32
  %100 = icmp sle i32 %99, 57
  br i1 %100, label %125, label %101

101:                                              ; preds = %95, %89
  %102 = load ptr, ptr %7, align 8, !tbaa !3
  %103 = getelementptr inbounds i8, ptr %102, i64 2
  %104 = load i8, ptr %103, align 1, !tbaa !13
  %105 = sext i8 %104 to i32
  %106 = icmp sge i32 %105, 97
  br i1 %106, label %107, label %113

107:                                              ; preds = %101
  %108 = load ptr, ptr %7, align 8, !tbaa !3
  %109 = getelementptr inbounds i8, ptr %108, i64 2
  %110 = load i8, ptr %109, align 1, !tbaa !13
  %111 = sext i8 %110 to i32
  %112 = icmp sle i32 %111, 102
  br i1 %112, label %125, label %113

113:                                              ; preds = %107, %101
  %114 = load ptr, ptr %7, align 8, !tbaa !3
  %115 = getelementptr inbounds i8, ptr %114, i64 2
  %116 = load i8, ptr %115, align 1, !tbaa !13
  %117 = sext i8 %116 to i32
  %118 = icmp sge i32 %117, 65
  br i1 %118, label %119, label %153

119:                                              ; preds = %113
  %120 = load ptr, ptr %7, align 8, !tbaa !3
  %121 = getelementptr inbounds i8, ptr %120, i64 2
  %122 = load i8, ptr %121, align 1, !tbaa !13
  %123 = sext i8 %122 to i32
  %124 = icmp sle i32 %123, 70
  br i1 %124, label %125, label %153

125:                                              ; preds = %119, %107, %95
  %126 = load ptr, ptr %7, align 8, !tbaa !3
  %127 = getelementptr inbounds i8, ptr %126, i64 1
  %128 = load i8, ptr %127, align 1, !tbaa !13
  %129 = sext i8 %128 to i32
  %130 = sub nsw i32 %129, 48
  %131 = sext i32 %130 to i64
  %132 = getelementptr inbounds [55 x i8], ptr @hextable, i64 0, i64 %131
  %133 = load i8, ptr %132, align 1, !tbaa !13
  %134 = zext i8 %133 to i32
  %135 = shl i32 %134, 4
  %136 = trunc i32 %135 to i8
  %137 = zext i8 %136 to i32
  %138 = load ptr, ptr %7, align 8, !tbaa !3
  %139 = getelementptr inbounds i8, ptr %138, i64 2
  %140 = load i8, ptr %139, align 1, !tbaa !13
  %141 = sext i8 %140 to i32
  %142 = sub nsw i32 %141, 48
  %143 = sext i32 %142 to i64
  %144 = getelementptr inbounds [55 x i8], ptr @hextable, i64 0, i64 %143
  %145 = load i8, ptr %144, align 1, !tbaa !13
  %146 = zext i8 %145 to i32
  %147 = or i32 %137, %146
  %148 = trunc i32 %147 to i8
  store i8 %148, ptr %15, align 1, !tbaa !13
  %149 = load ptr, ptr %7, align 8, !tbaa !3
  %150 = getelementptr inbounds i8, ptr %149, i64 3
  store ptr %150, ptr %7, align 8, !tbaa !3
  %151 = load i64, ptr %12, align 8, !tbaa !11
  %152 = sub i64 %151, 3
  store i64 %152, ptr %12, align 8, !tbaa !11
  br label %158

153:                                              ; preds = %119, %113, %83, %77, %50, %44
  %154 = load ptr, ptr %7, align 8, !tbaa !3
  %155 = getelementptr inbounds nuw i8, ptr %154, i32 1
  store ptr %155, ptr %7, align 8, !tbaa !3
  %156 = load i64, ptr %12, align 8, !tbaa !11
  %157 = add i64 %156, -1
  store i64 %157, ptr %12, align 8, !tbaa !11
  br label %158

158:                                              ; preds = %153, %125
  %159 = load i32, ptr %11, align 4, !tbaa !8
  %160 = icmp eq i32 %159, 3
  br i1 %160, label %161, label %165

161:                                              ; preds = %158
  %162 = load i8, ptr %15, align 1, !tbaa !13
  %163 = zext i8 %162 to i32
  %164 = icmp slt i32 %163, 32
  br i1 %164, label %172, label %165

165:                                              ; preds = %161, %158
  %166 = load i32, ptr %11, align 4, !tbaa !8
  %167 = icmp eq i32 %166, 4
  br i1 %167, label %168, label %180

168:                                              ; preds = %165
  %169 = load i8, ptr %15, align 1, !tbaa !13
  %170 = zext i8 %169 to i32
  %171 = icmp eq i32 %170, 0
  br i1 %171, label %172, label %180

172:                                              ; preds = %168, %161
  br label %173

173:                                              ; preds = %172
  %174 = load ptr, ptr @Curl_cfree, align 8, !tbaa !10
  %175 = load ptr, ptr %9, align 8, !tbaa !18
  %176 = load ptr, ptr %175, align 8, !tbaa !3
  call void %174(ptr noundef %176)
  %177 = load ptr, ptr %9, align 8, !tbaa !18
  store ptr null, ptr %177, align 8, !tbaa !3
  br label %178

178:                                              ; preds = %173
  br label %179

179:                                              ; preds = %178
  store i32 3, ptr %6, align 4
  store i32 1, ptr %14, align 4
  br label %184

180:                                              ; preds = %168, %165
  %181 = load i8, ptr %15, align 1, !tbaa !13
  %182 = load ptr, ptr %13, align 8, !tbaa !3
  %183 = getelementptr inbounds nuw i8, ptr %182, i32 1
  store ptr %183, ptr %13, align 8, !tbaa !3
  store i8 %181, ptr %182, align 1, !tbaa !13
  store i32 0, ptr %14, align 4
  br label %184

184:                                              ; preds = %180, %179
  call void @llvm.lifetime.end.p0(i64 1, ptr %15) #5
  %185 = load i32, ptr %14, align 4
  switch i32 %185, label %200 [
    i32 0, label %186
  ]

186:                                              ; preds = %184
  br label %41, !llvm.loop !22

187:                                              ; preds = %41
  %188 = load ptr, ptr %13, align 8, !tbaa !3
  store i8 0, ptr %188, align 1, !tbaa !13
  %189 = load ptr, ptr %10, align 8, !tbaa !20
  %190 = icmp ne ptr %189, null
  br i1 %190, label %191, label %199

191:                                              ; preds = %187
  %192 = load ptr, ptr %13, align 8, !tbaa !3
  %193 = load ptr, ptr %9, align 8, !tbaa !18
  %194 = load ptr, ptr %193, align 8, !tbaa !3
  %195 = ptrtoint ptr %192 to i64
  %196 = ptrtoint ptr %194 to i64
  %197 = sub i64 %195, %196
  %198 = load ptr, ptr %10, align 8, !tbaa !20
  store i64 %197, ptr %198, align 8, !tbaa !11
  br label %199

199:                                              ; preds = %191, %187
  store i32 0, ptr %6, align 4
  store i32 1, ptr %14, align 4
  br label %200

200:                                              ; preds = %199, %184, %37
  call void @llvm.lifetime.end.p0(i64 8, ptr %13) #5
  call void @llvm.lifetime.end.p0(i64 8, ptr %12) #5
  %201 = load i32, ptr %6, align 4
  ret i32 %201
}