; Function Attrs: nounwind uwtable
define hidden range(i32 0, 28) i32 @Curl_urldecode(ptr noundef readonly captures(none) %0, i64 noundef %1, ptr noundef captures(none) %2, ptr noundef writeonly %3, i32 noundef %4) local_unnamed_addr #0 {
  %.not = icmp eq i64 %1, 0
  br i1 %.not, label %6, label %8

6:                                                ; preds = %5
  %7 = tail call i64 @strlen(ptr noundef nonnull dereferenceable(1) %0) #6
  br label %8

8:                                                ; preds = %5, %6
  %9 = phi i64 [ %7, %6 ], [ %1, %5 ]
  %10 = load ptr, ptr @Curl_cmalloc, align 8, !tbaa !3
  %11 = add i64 %9, 1
  %12 = tail call ptr %10(i64 noundef %11) #5
  %.not67 = icmp eq ptr %12, null
  br i1 %.not67, label %103, label %13

13:                                               ; preds = %8
  store ptr %12, ptr %2, align 8, !tbaa !13
  %.not6884 = icmp eq i64 %9, 0
  br i1 %.not6884, label %._crit_edge, label %.lr.ph

.lr.ph:                                           ; preds = %13
  switch i32 %4, label %.lr.ph.split.us.split.us [
    i32 3, label %.lr.ph.split
    i32 4, label %.lr.ph.split.us.split
  ]

.lr.ph.split.us.split.us:                         ; preds = %.lr.ph, %36
  %.05187.us.us = phi ptr [ %39, %36 ], [ %12, %.lr.ph ]
  %.05286.us.us = phi i64 [ %38, %36 ], [ %9, %.lr.ph ]
  %.05685.us.us = phi ptr [ %37, %36 ], [ %0, %.lr.ph ]
  %14 = load i8, ptr %.05685.us.us, align 1, !tbaa !7
  %15 = icmp eq i8 %14, 37
  %16 = icmp ugt i64 %.05286.us.us, 2
  %or.cond.us.us = and i1 %16, %15
  br i1 %or.cond.us.us, label %17, label %36

17:                                               ; preds = %.lr.ph.split.us.split.us
  %18 = getelementptr inbounds nuw i8, ptr %.05685.us.us, i64 1
  %19 = load i8, ptr %18, align 1, !tbaa !7
  %.fr93 = freeze i8 %19
  %20 = add i8 %.fr93, -48
  %or.cond70.us.us = icmp ult i8 %20, 10
  br i1 %or.cond70.us.us, label %21, label %switch.early.test.us.us

switch.early.test.us.us:                          ; preds = %17
  switch i8 %.fr93, label %36 [
    i8 102, label %21
    i8 101, label %21
    i8 100, label %21
    i8 99, label %21
    i8 98, label %21
    i8 97, label %21
    i8 70, label %21
    i8 69, label %21
    i8 68, label %21
    i8 67, label %21
    i8 66, label %21
    i8 65, label %21
  ]

21:                                               ; preds = %switch.early.test.us.us, %switch.early.test.us.us, %switch.early.test.us.us, %switch.early.test.us.us, %switch.early.test.us.us, %switch.early.test.us.us, %switch.early.test.us.us, %switch.early.test.us.us, %switch.early.test.us.us, %switch.early.test.us.us, %switch.early.test.us.us, %switch.early.test.us.us, %17
  %22 = getelementptr inbounds nuw i8, ptr %.05685.us.us, i64 2
  %23 = load i8, ptr %22, align 1, !tbaa !7
  %.fr94 = freeze i8 %23
  %24 = add i8 %.fr94, -48
  %or.cond73.us.us = icmp ult i8 %24, 10
  br i1 %or.cond73.us.us, label %25, label %switch.early.test82.us.us

switch.early.test82.us.us:                        ; preds = %21
  switch i8 %.fr94, label %36 [
    i8 102, label %25
    i8 101, label %25
    i8 100, label %25
    i8 99, label %25
    i8 98, label %25
    i8 97, label %25
    i8 70, label %25
    i8 69, label %25
    i8 68, label %25
    i8 67, label %25
    i8 66, label %25
    i8 65, label %25
  ]

25:                                               ; preds = %switch.early.test82.us.us, %switch.early.test82.us.us, %switch.early.test82.us.us, %switch.early.test82.us.us, %switch.early.test82.us.us, %switch.early.test82.us.us, %switch.early.test82.us.us, %switch.early.test82.us.us, %switch.early.test82.us.us, %switch.early.test82.us.us, %switch.early.test82.us.us, %switch.early.test82.us.us, %21
  %26 = zext nneg i8 %.fr93 to i64
  %27 = add nsw i64 %26, -48
  %28 = getelementptr inbounds [55 x i8], ptr @hextable, i64 0, i64 %27
  %29 = load i8, ptr %28, align 1, !tbaa !7
  %30 = shl i8 %29, 4
  %31 = zext nneg i8 %.fr94 to i64
  %32 = add nsw i64 %31, -48
  %33 = getelementptr inbounds [55 x i8], ptr @hextable, i64 0, i64 %32
  %34 = load i8, ptr %33, align 1, !tbaa !7
  %35 = or i8 %30, %34
  br label %36

36:                                               ; preds = %.lr.ph.split.us.split.us, %switch.early.test.us.us, %switch.early.test82.us.us, %25
  %.sink105 = phi i64 [ 3, %25 ], [ 1, %switch.early.test82.us.us ], [ 1, %switch.early.test.us.us ], [ 1, %.lr.ph.split.us.split.us ]
  %.sink = phi i64 [ -3, %25 ], [ -1, %switch.early.test82.us.us ], [ -1, %switch.early.test.us.us ], [ -1, %.lr.ph.split.us.split.us ]
  %.0.us.us = phi i8 [ %35, %25 ], [ %14, %switch.early.test82.us.us ], [ %14, %switch.early.test.us.us ], [ %14, %.lr.ph.split.us.split.us ]
  %37 = getelementptr inbounds nuw i8, ptr %.05685.us.us, i64 %.sink105
  %38 = add i64 %.05286.us.us, %.sink
  %39 = getelementptr inbounds nuw i8, ptr %.05187.us.us, i64 1
  store i8 %.0.us.us, ptr %.05187.us.us, align 1, !tbaa !7
  %.not68.us.us = icmp eq i64 %38, 0
  br i1 %.not68.us.us, label %._crit_edge, label %.lr.ph.split.us.split.us, !llvm.loop !10

.lr.ph.split.us.split:                            ; preds = %.lr.ph, %64
  %.05187.us = phi ptr [ %67, %64 ], [ %12, %.lr.ph ]
  %.05286.us = phi i64 [ %65, %64 ], [ %9, %.lr.ph ]
  %.05685.us = phi ptr [ %66, %64 ], [ %0, %.lr.ph ]
  %40 = load i8, ptr %.05685.us, align 1, !tbaa !7
  %41 = icmp eq i8 %40, 37
  %42 = icmp ugt i64 %.05286.us, 2
  %or.cond.us = and i1 %42, %41
  br i1 %or.cond.us, label %43, label %62

43:                                               ; preds = %.lr.ph.split.us.split
  %44 = getelementptr inbounds nuw i8, ptr %.05685.us, i64 1
  %45 = load i8, ptr %44, align 1, !tbaa !7
  %.fr89 = freeze i8 %45
  %46 = add i8 %.fr89, -48
  %or.cond70.us = icmp ult i8 %46, 10
  br i1 %or.cond70.us, label %47, label %switch.early.test.us

switch.early.test.us:                             ; preds = %43
  switch i8 %.fr89, label %62 [
    i8 102, label %47
    i8 101, label %47
    i8 100, label %47
    i8 99, label %47
    i8 98, label %47
    i8 97, label %47
    i8 70, label %47
    i8 69, label %47
    i8 68, label %47
    i8 67, label %47
    i8 66, label %47
    i8 65, label %47
  ]

47:                                               ; preds = %switch.early.test.us, %switch.early.test.us, %switch.early.test.us, %switch.early.test.us, %switch.early.test.us, %switch.early.test.us, %switch.early.test.us, %switch.early.test.us, %switch.early.test.us, %switch.early.test.us, %switch.early.test.us, %switch.early.test.us, %43
  %48 = getelementptr inbounds nuw i8, ptr %.05685.us, i64 2
  %49 = load i8, ptr %48, align 1, !tbaa !7
  %.fr90 = freeze i8 %49
  %50 = add i8 %.fr90, -48
  %or.cond73.us = icmp ult i8 %50, 10
  br i1 %or.cond73.us, label %51, label %switch.early.test82.us

switch.early.test82.us:                           ; preds = %47
  switch i8 %.fr90, label %62 [
    i8 102, label %51
    i8 101, label %51
    i8 100, label %51
    i8 99, label %51
    i8 98, label %51
    i8 97, label %51
    i8 70, label %51
    i8 69, label %51
    i8 68, label %51
    i8 67, label %51
    i8 66, label %51
    i8 65, label %51
  ]

51:                                               ; preds = %switch.early.test82.us, %switch.early.test82.us, %switch.early.test82.us, %switch.early.test82.us, %switch.early.test82.us, %switch.early.test82.us, %switch.early.test82.us, %switch.early.test82.us, %switch.early.test82.us, %switch.early.test82.us, %switch.early.test82.us, %switch.early.test82.us, %47
  %52 = zext nneg i8 %.fr89 to i64
  %53 = add nsw i64 %52, -48
  %54 = getelementptr inbounds [55 x i8], ptr @hextable, i64 0, i64 %53
  %55 = load i8, ptr %54, align 1, !tbaa !7
  %56 = shl i8 %55, 4
  %57 = zext nneg i8 %.fr90 to i64
  %58 = add nsw i64 %57, -48
  %59 = getelementptr inbounds [55 x i8], ptr @hextable, i64 0, i64 %58
  %60 = load i8, ptr %59, align 1, !tbaa !7
  %61 = or i8 %56, %60
  br label %62

62:                                               ; preds = %.lr.ph.split.us.split, %switch.early.test.us, %switch.early.test82.us, %51
  %.sink107 = phi i64 [ 3, %51 ], [ 1, %switch.early.test82.us ], [ 1, %switch.early.test.us ], [ 1, %.lr.ph.split.us.split ]
  %.sink106 = phi i64 [ -3, %51 ], [ -1, %switch.early.test82.us ], [ -1, %switch.early.test.us ], [ -1, %.lr.ph.split.us.split ]
  %.0.us = phi i8 [ %61, %51 ], [ %40, %switch.early.test82.us ], [ %40, %switch.early.test.us ], [ %40, %.lr.ph.split.us.split ]
  %63 = icmp eq i8 %.0.us, 0
  br i1 %63, label %.thread, label %64

64:                                               ; preds = %62
  %65 = add i64 %.05286.us, %.sink106
  %66 = getelementptr inbounds nuw i8, ptr %.05685.us, i64 %.sink107
  %67 = getelementptr inbounds nuw i8, ptr %.05187.us, i64 1
  store i8 %.0.us, ptr %.05187.us, align 1, !tbaa !7
  %.not68.us = icmp eq i64 %65, 0
  br i1 %.not68.us, label %._crit_edge, label %.lr.ph.split.us.split, !llvm.loop !10

.lr.ph.split:                                     ; preds = %.lr.ph, %92
  %.05187 = phi ptr [ %95, %92 ], [ %12, %.lr.ph ]
  %.05286 = phi i64 [ %93, %92 ], [ %9, %.lr.ph ]
  %.05685 = phi ptr [ %94, %92 ], [ %0, %.lr.ph ]
  %68 = load i8, ptr %.05685, align 1, !tbaa !7
  %69 = icmp eq i8 %68, 37
  %70 = icmp ugt i64 %.05286, 2
  %or.cond = and i1 %70, %69
  br i1 %or.cond, label %71, label %90

71:                                               ; preds = %.lr.ph.split
  %72 = getelementptr inbounds nuw i8, ptr %.05685, i64 1
  %73 = load i8, ptr %72, align 1, !tbaa !7
  %.fr91 = freeze i8 %73
  %74 = add i8 %.fr91, -48
  %or.cond70 = icmp ult i8 %74, 10
  br i1 %or.cond70, label %75, label %switch.early.test

switch.early.test:                                ; preds = %71
  switch i8 %.fr91, label %90 [
    i8 102, label %75
    i8 101, label %75
    i8 100, label %75
    i8 99, label %75
    i8 98, label %75
    i8 97, label %75
    i8 70, label %75
    i8 69, label %75
    i8 68, label %75
    i8 67, label %75
    i8 66, label %75
    i8 65, label %75
  ]

75:                                               ; preds = %switch.early.test, %switch.early.test, %switch.early.test, %switch.early.test, %switch.early.test, %switch.early.test, %switch.early.test, %switch.early.test, %switch.early.test, %switch.early.test, %switch.early.test, %switch.early.test, %71
  %76 = getelementptr inbounds nuw i8, ptr %.05685, i64 2
  %77 = load i8, ptr %76, align 1, !tbaa !7
  %.fr92 = freeze i8 %77
  %78 = add i8 %.fr92, -48
  %or.cond73 = icmp ult i8 %78, 10
  br i1 %or.cond73, label %79, label %switch.early.test82

switch.early.test82:                              ; preds = %75
  switch i8 %.fr92, label %90 [
    i8 102, label %79
    i8 101, label %79
    i8 100, label %79
    i8 99, label %79
    i8 98, label %79
    i8 97, label %79
    i8 70, label %79
    i8 69, label %79
    i8 68, label %79
    i8 67, label %79
    i8 66, label %79
    i8 65, label %79
  ]

79:                                               ; preds = %switch.early.test82, %switch.early.test82, %switch.early.test82, %switch.early.test82, %switch.early.test82, %switch.early.test82, %switch.early.test82, %switch.early.test82, %switch.early.test82, %switch.early.test82, %switch.early.test82, %switch.early.test82, %75
  %80 = zext nneg i8 %.fr91 to i64
  %81 = add nsw i64 %80, -48
  %82 = getelementptr inbounds [55 x i8], ptr @hextable, i64 0, i64 %81
  %83 = load i8, ptr %82, align 1, !tbaa !7
  %84 = shl i8 %83, 4
  %85 = zext nneg i8 %.fr92 to i64
  %86 = add nsw i64 %85, -48
  %87 = getelementptr inbounds [55 x i8], ptr @hextable, i64 0, i64 %86
  %88 = load i8, ptr %87, align 1, !tbaa !7
  %89 = or i8 %84, %88
  br label %90

90:                                               ; preds = %.lr.ph.split, %switch.early.test, %switch.early.test82, %79
  %.sink109 = phi i64 [ 3, %79 ], [ 1, %switch.early.test82 ], [ 1, %switch.early.test ], [ 1, %.lr.ph.split ]
  %.sink108 = phi i64 [ -3, %79 ], [ -1, %switch.early.test82 ], [ -1, %switch.early.test ], [ -1, %.lr.ph.split ]
  %.0 = phi i8 [ %89, %79 ], [ %68, %switch.early.test82 ], [ %68, %switch.early.test ], [ %68, %.lr.ph.split ]
  %91 = icmp ult i8 %.0, 32
  br i1 %91, label %.thread, label %92

92:                                               ; preds = %90
  %93 = add i64 %.05286, %.sink108
  %94 = getelementptr inbounds nuw i8, ptr %.05685, i64 %.sink109
  %95 = getelementptr inbounds nuw i8, ptr %.05187, i64 1
  store i8 %.0, ptr %.05187, align 1, !tbaa !7
  %.not68 = icmp eq i64 %93, 0
  br i1 %.not68, label %._crit_edge, label %.lr.ph.split, !llvm.loop !10

.thread:                                          ; preds = %62, %90
  %96 = load ptr, ptr @Curl_cfree, align 8, !tbaa !3
  %97 = load ptr, ptr %2, align 8, !tbaa !13
  tail call void %96(ptr noundef %97) #5
  store ptr null, ptr %2, align 8, !tbaa !13
  br label %103

._crit_edge:                                      ; preds = %64, %92, %36, %13
  %.051.lcssa = phi ptr [ %12, %13 ], [ %39, %36 ], [ %95, %92 ], [ %67, %64 ]
  store i8 0, ptr %.051.lcssa, align 1, !tbaa !7
  %.not69 = icmp eq ptr %3, null
  br i1 %.not69, label %103, label %98

98:                                               ; preds = %._crit_edge
  %99 = load ptr, ptr %2, align 8, !tbaa !13
  %100 = ptrtoint ptr %.051.lcssa to i64
  %101 = ptrtoint ptr %99 to i64
  %102 = sub i64 %100, %101
  store i64 %102, ptr %3, align 8, !tbaa !15
  br label %103

103:                                              ; preds = %.thread, %._crit_edge, %98, %8
  %.054 = phi i32 [ 27, %8 ], [ 0, %98 ], [ 0, %._crit_edge ], [ 3, %.thread ]
  ret i32 %.054
}